; Function Attrs: mustprogress nofree nounwind willreturn uwtable
define float @float32_unpack(i32 noundef %0) local_unnamed_addr #10 {
  %2 = and i32 %0, 2097151
  %3 = uitofp nneg i32 %2 to double
  %4 = fneg double %3
  %.not7 = icmp slt i32 %0, 0
  %5 = select i1 %.not7, double %4, double %3
  %6 = lshr i32 %0, 21
  %7 = and i32 %6, 1023
  %8 = fptrunc double %5 to float
  %9 = fpext float %8 to double
  %10 = add nsw i32 %7, -788
  %11 = tail call double @ldexp(double noundef %9, i32 noundef %10) #35, !tbaa !21
  %12 = fptrunc double %11 to float
  ret float %12
}